; Function Attrs: nounwind uwtable
define internal fastcc void @col_set_rel_time(ptr noundef %0, ptr noundef readonly captures(none) %1, i32 noundef %2) unnamed_addr #0 {
  %4 = alloca %struct.nstime_t, align 8
  %5 = getelementptr inbounds nuw i8, ptr %0, i64 50
  %6 = load i16, ptr %5, align 2
  %7 = and i16 %6, 128
  %.not = icmp eq i16 %7, 0
  br i1 %.not, label %8, label %14

8:                                                ; preds = %3
  %9 = getelementptr inbounds nuw i8, ptr %1, i64 16
  %10 = load ptr, ptr %9, align 8
  %11 = sext i32 %2 to i64
  %12 = getelementptr %struct.col_item_t, ptr %10, i64 %11, i32 8
  %13 = load ptr, ptr %12, align 8
  store i8 0, ptr %13, align 1
  br label %79

14:                                               ; preds = %3
  %15 = load ptr, ptr %1, align 8
  %16 = getelementptr inbounds nuw i8, ptr %0, i64 88
  %17 = load i32, ptr %16, align 8
  call void @frame_delta_abs_time(ptr noundef %15, ptr noundef nonnull %0, i32 noundef %17, ptr noundef nonnull %4) #16
  %18 = call i32 @timestamp_get_seconds_type() #16
  switch i32 %18, label %71 [
    i32 0, label %19
    i32 1, label %46
  ]

19:                                               ; preds = %14
  %20 = getelementptr inbounds nuw i8, ptr %1, i64 16
  %21 = load ptr, ptr %20, align 8
  %22 = sext i32 %2 to i64
  %23 = getelementptr %struct.col_item_t, ptr %21, i64 %22, i32 8
  %24 = load ptr, ptr %23, align 8
  %25 = call i32 @timestamp_get_precision() #16
  %26 = icmp eq i32 %25, -1
  br i1 %26, label %27, label %32

27:                                               ; preds = %19
  %28 = load i16, ptr %5, align 2
  %29 = lshr i16 %28, 10
  %30 = and i16 %29, 15
  %31 = zext nneg i16 %30 to i32
  br label %set_time_seconds.exit

32:                                               ; preds = %19
  %33 = icmp slt i32 %25, 0
  br i1 %33, label %34, label %set_time_seconds.exit

34:                                               ; preds = %32
  call void (ptr, i32, ptr, i64, ptr, ptr, ...) @ws_log_fatal_full(ptr noundef nonnull @.str.1, i32 noundef 7, ptr noundef nonnull @.str.7, i64 noundef 984, ptr noundef nonnull @__func__.get_frame_timestamp_precision, ptr noundef nonnull @.str.9) #19
  unreachable

set_time_seconds.exit:                            ; preds = %27, %32
  %.0.i.i = phi i32 [ %31, %27 ], [ %25, %32 ]
  %spec.store.select.i.i = call range(i32 0, 10) i32 @llvm.umin.i32(i32 %.0.i.i, i32 9)
  call void @display_signed_time(ptr noundef %24, i64 noundef 2048, ptr noundef nonnull %4, i32 noundef %spec.store.select.i.i) #16
  %35 = getelementptr inbounds nuw i8, ptr %1, i64 40
  %36 = load ptr, ptr %35, align 8
  %37 = getelementptr ptr, ptr %36, i64 %22
  store ptr @.str.32, ptr %37, align 8
  %38 = getelementptr inbounds nuw i8, ptr %1, i64 48
  %39 = load ptr, ptr %38, align 8
  %40 = getelementptr ptr, ptr %39, i64 %22
  %41 = load ptr, ptr %40, align 8
  %42 = load ptr, ptr %20, align 8
  %43 = getelementptr %struct.col_item_t, ptr %42, i64 %22, i32 8
  %44 = load ptr, ptr %43, align 8
  %45 = call i64 @g_strlcpy(ptr noundef %41, ptr noundef %44, i64 noundef 2048) #16
  br label %72

46:                                               ; preds = %14
  %47 = getelementptr inbounds nuw i8, ptr %1, i64 16
  %48 = load ptr, ptr %47, align 8
  %49 = sext i32 %2 to i64
  %50 = getelementptr %struct.col_item_t, ptr %48, i64 %49, i32 8
  %51 = load ptr, ptr %50, align 8
  %52 = load ptr, ptr @col_decimal_point, align 8
  %.val = load i64, ptr %4, align 8
  %53 = getelementptr inbounds nuw i8, ptr %4, i64 8
  %.val26 = load i32, ptr %53, align 8
  call fastcc void @set_time_hour_min_sec(ptr noundef nonnull %0, i64 %.val, i32 %.val26, ptr noundef %51, ptr noundef %52)
  %54 = getelementptr inbounds nuw i8, ptr %1, i64 40
  %55 = load ptr, ptr %54, align 8
  %56 = getelementptr ptr, ptr %55, i64 %49
  store ptr @.str.32, ptr %56, align 8
  %57 = getelementptr inbounds nuw i8, ptr %1, i64 48
  %58 = load ptr, ptr %57, align 8
  %59 = getelementptr ptr, ptr %58, i64 %49
  %60 = load ptr, ptr %59, align 8
  %61 = call i32 @timestamp_get_precision() #16
  %62 = icmp eq i32 %61, -1
  br i1 %62, label %63, label %68

63:                                               ; preds = %46
  %64 = load i16, ptr %5, align 2
  %65 = lshr i16 %64, 10
  %66 = and i16 %65, 15
  %67 = zext nneg i16 %66 to i32
  br label %set_time_seconds.exit29

68:                                               ; preds = %46
  %69 = icmp slt i32 %61, 0
  br i1 %69, label %70, label %set_time_seconds.exit29

70:                                               ; preds = %68
  call void (ptr, i32, ptr, i64, ptr, ptr, ...) @ws_log_fatal_full(ptr noundef nonnull @.str.1, i32 noundef 7, ptr noundef nonnull @.str.7, i64 noundef 984, ptr noundef nonnull @__func__.get_frame_timestamp_precision, ptr noundef nonnull @.str.9) #19
  unreachable

set_time_seconds.exit29:                          ; preds = %63, %68
  %.0.i.i27 = phi i32 [ %67, %63 ], [ %61, %68 ]
  %spec.store.select.i.i28 = call range(i32 0, 10) i32 @llvm.umin.i32(i32 %.0.i.i27, i32 9)
  call void @display_signed_time(ptr noundef %60, i64 noundef 2048, ptr noundef nonnull %4, i32 noundef %spec.store.select.i.i28) #16
  br label %72

71:                                               ; preds = %14
  call void (ptr, i32, ptr, i64, ptr, ptr, ...) @ws_log_fatal_full(ptr noundef nonnull @.str.1, i32 noundef 7, ptr noundef nonnull @.str.7, i64 noundef 1261, ptr noundef nonnull @__func__.col_set_rel_time, ptr noundef nonnull @.str.9) #19
  unreachable

72:                                               ; preds = %set_time_seconds.exit29, %set_time_seconds.exit
  %.pre-phi = phi i64 [ %49, %set_time_seconds.exit29 ], [ %22, %set_time_seconds.exit ]
  %73 = getelementptr inbounds nuw i8, ptr %1, i64 16
  %74 = load ptr, ptr %73, align 8
  %75 = getelementptr %struct.col_item_t, ptr %74, i64 %.pre-phi
  %76 = getelementptr inbounds nuw i8, ptr %75, i64 64
  %77 = load ptr, ptr %76, align 8
  %78 = getelementptr inbounds nuw i8, ptr %75, i64 56
  store ptr %77, ptr %78, align 8
  br label %79

79:                                               ; preds = %72, %8
  ret void
}